; Function Attrs: null_pointer_is_valid sspstrong uwtable
define internal fastcc void @send_hci_summary_status_tap(i8 noundef zeroext %0, ptr noundef %1, ptr noundef nonnull readonly captures(none) %2) unnamed_addr #1 {
  %4 = load i32, ptr @bluetooth_hci_summary_tap, align 4
  %5 = tail call zeroext i1 @have_tap_listener(i32 noundef %4)
  br i1 %5, label %6, label %23

6:                                                ; preds = %3
  %7 = getelementptr inbounds nuw i8, ptr %1, i64 408
  %8 = load ptr, ptr %7, align 8
  %9 = tail call noalias dereferenceable_or_null(32) ptr @wmem_alloc(ptr noundef %8, i64 noundef 32) #11
  %10 = load i32, ptr %2, align 8
  store i32 %10, ptr %9, align 8
  %11 = getelementptr inbounds nuw i8, ptr %2, i64 4
  %12 = load i32, ptr %11, align 4
  %13 = getelementptr inbounds nuw i8, ptr %9, i64 4
  store i32 %12, ptr %13, align 4
  %14 = getelementptr inbounds nuw i8, ptr %9, i64 24
  store i32 7, ptr %14, align 8
  %15 = getelementptr inbounds nuw i8, ptr %9, i64 13
  store i8 %0, ptr %15, align 1
  %16 = zext i8 %0 to i32
  %17 = tail call ptr @try_val_to_str_ext(i32 noundef %16, ptr noundef nonnull @bthci_cmd_status_vals_ext)
  %.not = icmp eq ptr %17, null
  br i1 %.not, label %20, label %18

18:                                               ; preds = %6
  %19 = tail call ptr @val_to_str_ext(i32 noundef %16, ptr noundef nonnull @bthci_cmd_status_vals_ext, ptr noundef nonnull @.str.1819)
  br label %20

20:                                               ; preds = %6, %18
  %.sink = phi ptr [ %19, %18 ], [ null, %6 ]
  %21 = getelementptr inbounds nuw i8, ptr %9, i64 16
  store ptr %.sink, ptr %21, align 8
  %22 = load i32, ptr @bluetooth_hci_summary_tap, align 4
  tail call void @tap_queue_packet(i32 noundef %22, ptr noundef %1, ptr noundef %9)
  br label %23

23:                                               ; preds = %20, %3
  ret void
}